target datalayout = "e-m:e-p270:32:32-p271:32:32-p272:64:64-i64:64-i128:128-f80:128-n8:16:32:64-S128"
target triple = "x86_64-pc-linux-gnu"

%struct.__jmp_buf_tag = type { [8 x i64], i32, %struct.__sigset_t }
%struct.__sigset_t = type { [16 x i64] }
%struct.IndexVacuumInfo = type { ptr, ptr, i8, i8, i8, i32, double, ptr }

@PG_exception_stack = external global ptr, align 8
@error_context_stack = external global ptr, align 8

; Function Attrs: inlinehint nounwind uwtable
define internal i64 @PointerGetDatum(ptr noundef %0) #2 {
  %2 = alloca ptr, align 8
  store ptr %0, ptr %2, align 8
  %3 = load ptr, ptr %2, align 8
  %4 = ptrtoint ptr %3 to i64
  ret i64 %4
}

; Function Attrs: nounwind uwtable
define dso_local ptr @btbulkdelete(ptr noundef %0, ptr noundef %1, ptr noundef %2, ptr noundef %3) #0 {
  %5 = alloca ptr, align 8
  %6 = alloca ptr, align 8
  %7 = alloca ptr, align 8
  %8 = alloca ptr, align 8
  %9 = alloca ptr, align 8
  %10 = alloca i16, align 2
  %11 = alloca ptr, align 8
  %12 = alloca ptr, align 8
  %13 = alloca [1 x %struct.__jmp_buf_tag], align 16
  %14 = alloca i8, align 1
  store ptr %0, ptr %5, align 8
  store ptr %1, ptr %6, align 8
  store ptr %2, ptr %7, align 8
  store ptr %3, ptr %8, align 8
  call void @llvm.lifetime.start.p0(i64 8, ptr %9) #8
  %15 = load ptr, ptr %5, align 8
  %16 = getelementptr inbounds nuw %struct.IndexVacuumInfo, ptr %15, i32 0, i32 0
  %17 = load ptr, ptr %16, align 8
  store ptr %17, ptr %9, align 8
  call void @llvm.lifetime.start.p0(i64 2, ptr %10) #8
  %18 = load ptr, ptr %6, align 8
  %19 = icmp eq ptr %18, null
  br i1 %19, label %20, label %22

20:                                               ; preds = %4
  %21 = call ptr @palloc0(i64 noundef 40)
  store ptr %21, ptr %6, align 8
  br label %22

22:                                               ; preds = %20, %4
  br label %23

23:                                               ; preds = %22
  %24 = load ptr, ptr %9, align 8
  %25 = call i64 @PointerGetDatum(ptr noundef %24)
  call void @before_shmem_exit(ptr noundef @_bt_end_vacuum_callback, i64 noundef %25)
  br label %26

26:                                               ; preds = %23
  call void @llvm.lifetime.start.p0(i64 8, ptr %11) #8
  %27 = load ptr, ptr @PG_exception_stack, align 8
  store ptr %27, ptr %11, align 8
  call void @llvm.lifetime.start.p0(i64 8, ptr %12) #8
  %28 = load ptr, ptr @error_context_stack, align 8
  store ptr %28, ptr %12, align 8
  call void @llvm.lifetime.start.p0(i64 200, ptr %13) #8
  call void @llvm.lifetime.start.p0(i64 1, ptr %14) #8
  store i8 0, ptr %14, align 1
  %29 = getelementptr inbounds [1 x %struct.__jmp_buf_tag], ptr %13, i64 0, i64 0
  %30 = call i32 @__sigsetjmp(ptr noundef %29, i32 noundef 0) #9
  %31 = icmp eq i32 %30, 0
  br i1 %31, label %32, label %42

32:                                               ; preds = %26
  store ptr %13, ptr @PG_exception_stack, align 8
  %33 = load ptr, ptr %9, align 8
  %34 = call zeroext i16 @_bt_start_vacuum(ptr noundef %33)
  store i16 %34, ptr %10, align 2
  %35 = load ptr, ptr %5, align 8
  %36 = load ptr, ptr %6, align 8
  %37 = load ptr, ptr %7, align 8
  %38 = load ptr, ptr %8, align 8
  %39 = load i16, ptr %10, align 2
  call void @btvacuumscan(ptr noundef %35, ptr noundef %36, ptr noundef %37, ptr noundef %38, i16 noundef zeroext %39)
  %40 = load ptr, ptr %9, align 8
  %41 = call i64 @PointerGetDatum(ptr noundef %40)
  call void @cancel_before_shmem_exit(ptr noundef @_bt_end_vacuum_callback, i64 noundef %41)
  br label %49

42:                                               ; preds = %26
  %43 = load ptr, ptr %11, align 8
  store ptr %43, ptr @PG_exception_stack, align 8
  %44 = load ptr, ptr %12, align 8
  store ptr %44, ptr @error_context_stack, align 8
  %45 = load ptr, ptr %9, align 8
  %46 = call i64 @PointerGetDatum(ptr noundef %45)
  call void @cancel_before_shmem_exit(ptr noundef @_bt_end_vacuum_callback, i64 noundef %46)
  %47 = load ptr, ptr %9, align 8
  %48 = call i64 @PointerGetDatum(ptr noundef %47)
  call void @_bt_end_vacuum_callback(i32 noundef 0, i64 noundef %48)
  call void @pg_re_throw() #10
  unreachable

49:                                               ; preds = %32
  %50 = load i8, ptr %14, align 1, !range !4, !noundef !5
  %51 = trunc i8 %50 to i1
  br i1 %51, label %52, label %53

52:                                               ; preds = %49
  call void @pg_re_throw() #10
  unreachable

53:                                               ; preds = %49
  %54 = load ptr, ptr %11, align 8
  store ptr %54, ptr @PG_exception_stack, align 8
  %55 = load ptr, ptr %12, align 8
  store ptr %55, ptr @error_context_stack, align 8
  call void @llvm.lifetime.end.p0(i64 1, ptr %14) #8
  call void @llvm.lifetime.end.p0(i64 200, ptr %13) #8
  call void @llvm.lifetime.end.p0(i64 8, ptr %12) #8
  call void @llvm.lifetime.end.p0(i64 8, ptr %11) #8
  br label %56

56:                                               ; preds = %53
  br label %57

57:                                               ; preds = %56
  br label %58

58:                                               ; preds = %57
  br label %59

59:                                               ; preds = %58
  %60 = load ptr, ptr %9, align 8
  call void @_bt_end_vacuum(ptr noundef %60)
  %61 = load ptr, ptr %6, align 8
  call void @llvm.lifetime.end.p0(i64 2, ptr %10) #8
  call void @llvm.lifetime.end.p0(i64 8, ptr %9) #8
  ret ptr %61
}