; Function Attrs: nounwind uwtable
define dso_local ptr @btbulkdelete(ptr noundef %0, ptr noundef %1, ptr noundef %2, ptr noundef %3) #0 {
  %5 = alloca [1 x %struct.__jmp_buf_tag], align 16
  %6 = load ptr, ptr %0, align 8
  %7 = icmp eq ptr %1, null
  br i1 %7, label %8, label %10

8:                                                ; preds = %4
  %9 = call ptr @palloc0(i64 noundef 40) #8
  br label %10

10:                                               ; preds = %4, %8
  %.0 = phi ptr [ %9, %8 ], [ %1, %4 ]
  %11 = ptrtoint ptr %6 to i64
  call void @before_shmem_exit(ptr noundef nonnull @_bt_end_vacuum_callback, i64 noundef %11) #8
  %12 = load ptr, ptr @PG_exception_stack, align 8
  %13 = load ptr, ptr @error_context_stack, align 8
  call void @llvm.lifetime.start.p0(i64 200, ptr nonnull %5) #8
  %14 = call i32 @__sigsetjmp(ptr noundef nonnull %5, i32 noundef 0) #9
  %15 = icmp eq i32 %14, 0
  br i1 %15, label %16, label %18

16:                                               ; preds = %10
  store ptr %5, ptr @PG_exception_stack, align 8
  %17 = call zeroext i16 @_bt_start_vacuum(ptr noundef %6) #8
  call fastcc void @btvacuumscan(ptr noundef nonnull %0, ptr noundef %.0, ptr noundef %2, ptr noundef %3, i16 noundef zeroext %17)
  call void @cancel_before_shmem_exit(ptr noundef nonnull @_bt_end_vacuum_callback, i64 noundef %11) #8
  store ptr %12, ptr @PG_exception_stack, align 8
  store ptr %13, ptr @error_context_stack, align 8
  call void @llvm.lifetime.end.p0(i64 200, ptr nonnull %5) #8
  call void @_bt_end_vacuum(ptr noundef %6) #8
  ret ptr %.0

18:                                               ; preds = %10
  store ptr %12, ptr @PG_exception_stack, align 8
  store ptr %13, ptr @error_context_stack, align 8
  call void @cancel_before_shmem_exit(ptr noundef nonnull @_bt_end_vacuum_callback, i64 noundef %11) #8
  call void @_bt_end_vacuum_callback(i32 noundef 0, i64 noundef %11) #8
  call void @pg_re_throw() #10
  unreachable
}